; Function Attrs: mustprogress nofree norecurse nosync nounwind willreturn memory(read, argmem: readwrite, inaccessiblemem: none) uwtable
define noundef zeroext i16 @_ZN6icu_7722UCharCharacterIterator4lastEv(ptr noundef nonnull align 8 captures(none) dereferenceable(32) initializes((12, 16)) %0) unnamed_addr #7 align 2 {
  %2 = getelementptr inbounds nuw i8, ptr %0, i64 20
  %3 = load i32, ptr %2, align 4, !tbaa !24
  %4 = getelementptr inbounds nuw i8, ptr %0, i64 12
  store i32 %3, ptr %4, align 4, !tbaa !22
  %5 = getelementptr inbounds nuw i8, ptr %0, i64 16
  %6 = load i32, ptr %5, align 8, !tbaa !23
  %7 = icmp sgt i32 %3, %6
  br i1 %7, label %8, label %15

8:                                                ; preds = %1
  %9 = getelementptr inbounds nuw i8, ptr %0, i64 24
  %10 = load ptr, ptr %9, align 8, !tbaa !6
  %11 = add nsw i32 %3, -1
  store i32 %11, ptr %4, align 4, !tbaa !22
  %12 = sext i32 %11 to i64
  %13 = getelementptr inbounds i16, ptr %10, i64 %12
  %14 = load i16, ptr %13, align 2, !tbaa !25
  br label %15

15:                                               ; preds = %1, %8
  %.0 = phi i16 [ %14, %8 ], [ -1, %1 ]
  ret i16 %.0
}